target datalayout = "e-m:e-p270:32:32-p271:32:32-p272:64:64-i64:64-i128:128-f80:128-n8:16:32:64-S128"
target triple = "x86_64-pc-linux-gnu"

%struct.php_url = type { ptr, ptr, ptr, ptr, i16, ptr, ptr, ptr }
%struct._zend_refcounted_h = type { i32, %union.anon }
%union.anon = type { i32 }

; Function Attrs: nounwind uwtable
define void @php_url_free(ptr noundef %0) #0 {
  %2 = alloca ptr, align 8
  %3 = alloca ptr, align 8
  %4 = alloca ptr, align 8
  %5 = alloca ptr, align 8
  %6 = alloca ptr, align 8
  %7 = alloca ptr, align 8
  %8 = alloca ptr, align 8
  %9 = alloca i32, align 4
  %10 = alloca i32, align 4
  %11 = alloca i32, align 4
  %12 = alloca i32, align 4
  %13 = alloca i32, align 4
  %14 = alloca i32, align 4
  %15 = alloca i32, align 4
  %16 = alloca ptr, align 8
  %17 = alloca i8, align 1
  %18 = alloca ptr, align 8
  %19 = alloca i8, align 1
  %20 = alloca ptr, align 8
  %21 = alloca i8, align 1
  %22 = alloca ptr, align 8
  %23 = alloca i8, align 1
  %24 = alloca ptr, align 8
  %25 = alloca i8, align 1
  %26 = alloca ptr, align 8
  %27 = alloca i8, align 1
  %28 = alloca ptr, align 8
  %29 = alloca i8, align 1
  %30 = alloca ptr, align 8
  store ptr %0, ptr %30, align 8
  %31 = load ptr, ptr %30, align 8
  %32 = getelementptr inbounds %struct.php_url, ptr %31, i32 0, i32 0
  %33 = load ptr, ptr %32, align 8
  %34 = icmp ne ptr %33, null
  br i1 %34, label %35, label %65

35:                                               ; preds = %1
  %36 = load ptr, ptr %30, align 8
  %37 = getelementptr inbounds %struct.php_url, ptr %36, i32 0, i32 0
  %38 = load ptr, ptr %37, align 8
  store ptr %38, ptr %16, align 8
  store i8 0, ptr %17, align 1
  %39 = load ptr, ptr %16, align 8
  %40 = getelementptr inbounds %struct._zend_refcounted_h, ptr %39, i32 0, i32 1
  %41 = load i32, ptr %40, align 4
  store i32 %41, ptr %15, align 4
  %42 = load i32, ptr %15, align 4
  %43 = and i32 %42, 1008
  %44 = and i32 %43, 64
  %45 = icmp ne i32 %44, 0
  br i1 %45, label %64, label %46

46:                                               ; preds = %35
  %47 = load ptr, ptr %16, align 8
  store ptr %47, ptr %8, align 8
  %48 = load ptr, ptr %8, align 8
  %49 = load i32, ptr %48, align 4
  %50 = icmp ugt i32 %49, 0
  call void @llvm.assume(i1 %50)
  %51 = load ptr, ptr %8, align 8
  %52 = load i32, ptr %51, align 4
  %53 = add i32 %52, -1
  store i32 %53, ptr %51, align 4
  %54 = icmp eq i32 %53, 0
  br i1 %54, label %55, label %63

55:                                               ; preds = %46
  %56 = load i8, ptr %17, align 1
  %57 = trunc i8 %56 to i1
  br i1 %57, label %58, label %60

58:                                               ; preds = %55
  %59 = load ptr, ptr %16, align 8
  call void @free(ptr noundef %59) #13
  br label %62

60:                                               ; preds = %55
  %61 = load ptr, ptr %16, align 8
  call void @_efree(ptr noundef %61) #13
  br label %62

62:                                               ; preds = %60, %58
  br label %63

63:                                               ; preds = %62, %46
  br label %64

64:                                               ; preds = %63, %35
  br label %65

65:                                               ; preds = %64, %1
  %66 = load ptr, ptr %30, align 8
  %67 = getelementptr inbounds %struct.php_url, ptr %66, i32 0, i32 1
  %68 = load ptr, ptr %67, align 8
  %69 = icmp ne ptr %68, null
  br i1 %69, label %70, label %100

70:                                               ; preds = %65
  %71 = load ptr, ptr %30, align 8
  %72 = getelementptr inbounds %struct.php_url, ptr %71, i32 0, i32 1
  %73 = load ptr, ptr %72, align 8
  store ptr %73, ptr %18, align 8
  store i8 0, ptr %19, align 1
  %74 = load ptr, ptr %18, align 8
  %75 = getelementptr inbounds %struct._zend_refcounted_h, ptr %74, i32 0, i32 1
  %76 = load i32, ptr %75, align 4
  store i32 %76, ptr %14, align 4
  %77 = load i32, ptr %14, align 4
  %78 = and i32 %77, 1008
  %79 = and i32 %78, 64
  %80 = icmp ne i32 %79, 0
  br i1 %80, label %99, label %81

81:                                               ; preds = %70
  %82 = load ptr, ptr %18, align 8
  store ptr %82, ptr %7, align 8
  %83 = load ptr, ptr %7, align 8
  %84 = load i32, ptr %83, align 4
  %85 = icmp ugt i32 %84, 0
  call void @llvm.assume(i1 %85)
  %86 = load ptr, ptr %7, align 8
  %87 = load i32, ptr %86, align 4
  %88 = add i32 %87, -1
  store i32 %88, ptr %86, align 4
  %89 = icmp eq i32 %88, 0
  br i1 %89, label %90, label %98

90:                                               ; preds = %81
  %91 = load i8, ptr %19, align 1
  %92 = trunc i8 %91 to i1
  br i1 %92, label %93, label %95

93:                                               ; preds = %90
  %94 = load ptr, ptr %18, align 8
  call void @free(ptr noundef %94) #13
  br label %97

95:                                               ; preds = %90
  %96 = load ptr, ptr %18, align 8
  call void @_efree(ptr noundef %96) #13
  br label %97

97:                                               ; preds = %95, %93
  br label %98

98:                                               ; preds = %97, %81
  br label %99

99:                                               ; preds = %98, %70
  br label %100

100:                                              ; preds = %99, %65
  %101 = load ptr, ptr %30, align 8
  %102 = getelementptr inbounds %struct.php_url, ptr %101, i32 0, i32 2
  %103 = load ptr, ptr %102, align 8
  %104 = icmp ne ptr %103, null
  br i1 %104, label %105, label %135

105:                                              ; preds = %100
  %106 = load ptr, ptr %30, align 8
  %107 = getelementptr inbounds %struct.php_url, ptr %106, i32 0, i32 2
  %108 = load ptr, ptr %107, align 8
  store ptr %108, ptr %20, align 8
  store i8 0, ptr %21, align 1
  %109 = load ptr, ptr %20, align 8
  %110 = getelementptr inbounds %struct._zend_refcounted_h, ptr %109, i32 0, i32 1
  %111 = load i32, ptr %110, align 4
  store i32 %111, ptr %13, align 4
  %112 = load i32, ptr %13, align 4
  %113 = and i32 %112, 1008
  %114 = and i32 %113, 64
  %115 = icmp ne i32 %114, 0
  br i1 %115, label %134, label %116

116:                                              ; preds = %105
  %117 = load ptr, ptr %20, align 8
  store ptr %117, ptr %6, align 8
  %118 = load ptr, ptr %6, align 8
  %119 = load i32, ptr %118, align 4
  %120 = icmp ugt i32 %119, 0
  call void @llvm.assume(i1 %120)
  %121 = load ptr, ptr %6, align 8
  %122 = load i32, ptr %121, align 4
  %123 = add i32 %122, -1
  store i32 %123, ptr %121, align 4
  %124 = icmp eq i32 %123, 0
  br i1 %124, label %125, label %133

125:                                              ; preds = %116
  %126 = load i8, ptr %21, align 1
  %127 = trunc i8 %126 to i1
  br i1 %127, label %128, label %130

128:                                              ; preds = %125
  %129 = load ptr, ptr %20, align 8
  call void @free(ptr noundef %129) #13
  br label %132

130:                                              ; preds = %125
  %131 = load ptr, ptr %20, align 8
  call void @_efree(ptr noundef %131) #13
  br label %132

132:                                              ; preds = %130, %128
  br label %133

133:                                              ; preds = %132, %116
  br label %134

134:                                              ; preds = %133, %105
  br label %135

135:                                              ; preds = %134, %100
  %136 = load ptr, ptr %30, align 8
  %137 = getelementptr inbounds %struct.php_url, ptr %136, i32 0, i32 3
  %138 = load ptr, ptr %137, align 8
  %139 = icmp ne ptr %138, null
  br i1 %139, label %140, label %170

140:                                              ; preds = %135
  %141 = load ptr, ptr %30, align 8
  %142 = getelementptr inbounds %struct.php_url, ptr %141, i32 0, i32 3
  %143 = load ptr, ptr %142, align 8
  store ptr %143, ptr %22, align 8
  store i8 0, ptr %23, align 1
  %144 = load ptr, ptr %22, align 8
  %145 = getelementptr inbounds %struct._zend_refcounted_h, ptr %144, i32 0, i32 1
  %146 = load i32, ptr %145, align 4
  store i32 %146, ptr %12, align 4
  %147 = load i32, ptr %12, align 4
  %148 = and i32 %147, 1008
  %149 = and i32 %148, 64
  %150 = icmp ne i32 %149, 0
  br i1 %150, label %169, label %151

151:                                              ; preds = %140
  %152 = load ptr, ptr %22, align 8
  store ptr %152, ptr %5, align 8
  %153 = load ptr, ptr %5, align 8
  %154 = load i32, ptr %153, align 4
  %155 = icmp ugt i32 %154, 0
  call void @llvm.assume(i1 %155)
  %156 = load ptr, ptr %5, align 8
  %157 = load i32, ptr %156, align 4
  %158 = add i32 %157, -1
  store i32 %158, ptr %156, align 4
  %159 = icmp eq i32 %158, 0
  br i1 %159, label %160, label %168

160:                                              ; preds = %151
  %161 = load i8, ptr %23, align 1
  %162 = trunc i8 %161 to i1
  br i1 %162, label %163, label %165

163:                                              ; preds = %160
  %164 = load ptr, ptr %22, align 8
  call void @free(ptr noundef %164) #13
  br label %167

165:                                              ; preds = %160
  %166 = load ptr, ptr %22, align 8
  call void @_efree(ptr noundef %166) #13
  br label %167

167:                                              ; preds = %165, %163
  br label %168

168:                                              ; preds = %167, %151
  br label %169

169:                                              ; preds = %168, %140
  br label %170

170:                                              ; preds = %169, %135
  %171 = load ptr, ptr %30, align 8
  %172 = getelementptr inbounds %struct.php_url, ptr %171, i32 0, i32 5
  %173 = load ptr, ptr %172, align 8
  %174 = icmp ne ptr %173, null
  br i1 %174, label %175, label %205

175:                                              ; preds = %170
  %176 = load ptr, ptr %30, align 8
  %177 = getelementptr inbounds %struct.php_url, ptr %176, i32 0, i32 5
  %178 = load ptr, ptr %177, align 8
  store ptr %178, ptr %24, align 8
  store i8 0, ptr %25, align 1
  %179 = load ptr, ptr %24, align 8
  %180 = getelementptr inbounds %struct._zend_refcounted_h, ptr %179, i32 0, i32 1
  %181 = load i32, ptr %180, align 4
  store i32 %181, ptr %11, align 4
  %182 = load i32, ptr %11, align 4
  %183 = and i32 %182, 1008
  %184 = and i32 %183, 64
  %185 = icmp ne i32 %184, 0
  br i1 %185, label %204, label %186

186:                                              ; preds = %175
  %187 = load ptr, ptr %24, align 8
  store ptr %187, ptr %4, align 8
  %188 = load ptr, ptr %4, align 8
  %189 = load i32, ptr %188, align 4
  %190 = icmp ugt i32 %189, 0
  call void @llvm.assume(i1 %190)
  %191 = load ptr, ptr %4, align 8
  %192 = load i32, ptr %191, align 4
  %193 = add i32 %192, -1
  store i32 %193, ptr %191, align 4
  %194 = icmp eq i32 %193, 0
  br i1 %194, label %195, label %203

195:                                              ; preds = %186
  %196 = load i8, ptr %25, align 1
  %197 = trunc i8 %196 to i1
  br i1 %197, label %198, label %200

198:                                              ; preds = %195
  %199 = load ptr, ptr %24, align 8
  call void @free(ptr noundef %199) #13
  br label %202

200:                                              ; preds = %195
  %201 = load ptr, ptr %24, align 8
  call void @_efree(ptr noundef %201) #13
  br label %202

202:                                              ; preds = %200, %198
  br label %203

203:                                              ; preds = %202, %186
  br label %204

204:                                              ; preds = %203, %175
  br label %205

205:                                              ; preds = %204, %170
  %206 = load ptr, ptr %30, align 8
  %207 = getelementptr inbounds %struct.php_url, ptr %206, i32 0, i32 6
  %208 = load ptr, ptr %207, align 8
  %209 = icmp ne ptr %208, null
  br i1 %209, label %210, label %240

210:                                              ; preds = %205
  %211 = load ptr, ptr %30, align 8
  %212 = getelementptr inbounds %struct.php_url, ptr %211, i32 0, i32 6
  %213 = load ptr, ptr %212, align 8
  store ptr %213, ptr %26, align 8
  store i8 0, ptr %27, align 1
  %214 = load ptr, ptr %26, align 8
  %215 = getelementptr inbounds %struct._zend_refcounted_h, ptr %214, i32 0, i32 1
  %216 = load i32, ptr %215, align 4
  store i32 %216, ptr %10, align 4
  %217 = load i32, ptr %10, align 4
  %218 = and i32 %217, 1008
  %219 = and i32 %218, 64
  %220 = icmp ne i32 %219, 0
  br i1 %220, label %239, label %221

221:                                              ; preds = %210
  %222 = load ptr, ptr %26, align 8
  store ptr %222, ptr %3, align 8
  %223 = load ptr, ptr %3, align 8
  %224 = load i32, ptr %223, align 4
  %225 = icmp ugt i32 %224, 0
  call void @llvm.assume(i1 %225)
  %226 = load ptr, ptr %3, align 8
  %227 = load i32, ptr %226, align 4
  %228 = add i32 %227, -1
  store i32 %228, ptr %226, align 4
  %229 = icmp eq i32 %228, 0
  br i1 %229, label %230, label %238

230:                                              ; preds = %221
  %231 = load i8, ptr %27, align 1
  %232 = trunc i8 %231 to i1
  br i1 %232, label %233, label %235

233:                                              ; preds = %230
  %234 = load ptr, ptr %26, align 8
  call void @free(ptr noundef %234) #13
  br label %237

235:                                              ; preds = %230
  %236 = load ptr, ptr %26, align 8
  call void @_efree(ptr noundef %236) #13
  br label %237

237:                                              ; preds = %235, %233
  br label %238

238:                                              ; preds = %237, %221
  br label %239

239:                                              ; preds = %238, %210
  br label %240

240:                                              ; preds = %239, %205
  %241 = load ptr, ptr %30, align 8
  %242 = getelementptr inbounds %struct.php_url, ptr %241, i32 0, i32 7
  %243 = load ptr, ptr %242, align 8
  %244 = icmp ne ptr %243, null
  br i1 %244, label %245, label %275

245:                                              ; preds = %240
  %246 = load ptr, ptr %30, align 8
  %247 = getelementptr inbounds %struct.php_url, ptr %246, i32 0, i32 7
  %248 = load ptr, ptr %247, align 8
  store ptr %248, ptr %28, align 8
  store i8 0, ptr %29, align 1
  %249 = load ptr, ptr %28, align 8
  %250 = getelementptr inbounds %struct._zend_refcounted_h, ptr %249, i32 0, i32 1
  %251 = load i32, ptr %250, align 4
  store i32 %251, ptr %9, align 4
  %252 = load i32, ptr %9, align 4
  %253 = and i32 %252, 1008
  %254 = and i32 %253, 64
  %255 = icmp ne i32 %254, 0
  br i1 %255, label %274, label %256

256:                                              ; preds = %245
  %257 = load ptr, ptr %28, align 8
  store ptr %257, ptr %2, align 8
  %258 = load ptr, ptr %2, align 8
  %259 = load i32, ptr %258, align 4
  %260 = icmp ugt i32 %259, 0
  call void @llvm.assume(i1 %260)
  %261 = load ptr, ptr %2, align 8
  %262 = load i32, ptr %261, align 4
  %263 = add i32 %262, -1
  store i32 %263, ptr %261, align 4
  %264 = icmp eq i32 %263, 0
  br i1 %264, label %265, label %273

265:                                              ; preds = %256
  %266 = load i8, ptr %29, align 1
  %267 = trunc i8 %266 to i1
  br i1 %267, label %268, label %270

268:                                              ; preds = %265
  %269 = load ptr, ptr %28, align 8
  call void @free(ptr noundef %269) #13
  br label %272

270:                                              ; preds = %265
  %271 = load ptr, ptr %28, align 8
  call void @_efree(ptr noundef %271) #13
  br label %272

272:                                              ; preds = %270, %268
  br label %273

273:                                              ; preds = %272, %256
  br label %274

274:                                              ; preds = %273, %245
  br label %275

275:                                              ; preds = %274, %240
  %276 = load ptr, ptr %30, align 8
  call void @_efree(ptr noundef %276)
  ret void
}