; Function Attrs: nounwind uwtable
define void @php_url_free(ptr noundef %0) local_unnamed_addr #0 {
  %2 = load ptr, ptr %0, align 8
  %.not = icmp eq ptr %2, null
  br i1 %.not, label %13, label %3

3:                                                ; preds = %1
  %4 = getelementptr inbounds i8, ptr %2, i64 4
  %5 = load i32, ptr %4, align 4
  %6 = and i32 %5, 64
  %.not76 = icmp eq i32 %6, 0
  br i1 %.not76, label %7, label %13

7:                                                ; preds = %3
  %8 = load i32, ptr %2, align 4
  %9 = icmp ne i32 %8, 0
  tail call void @llvm.assume(i1 %9)
  %10 = add i32 %8, -1
  store i32 %10, ptr %2, align 4
  %11 = icmp eq i32 %10, 0
  br i1 %11, label %12, label %13

12:                                               ; preds = %7
  tail call void @_efree(ptr noundef nonnull %2) #16
  br label %13

13:                                               ; preds = %3, %12, %7, %1
  %14 = getelementptr inbounds i8, ptr %0, i64 8
  %15 = load ptr, ptr %14, align 8
  %.not77 = icmp eq ptr %15, null
  br i1 %.not77, label %26, label %16

16:                                               ; preds = %13
  %17 = getelementptr inbounds i8, ptr %15, i64 4
  %18 = load i32, ptr %17, align 4
  %19 = and i32 %18, 64
  %.not78 = icmp eq i32 %19, 0
  br i1 %.not78, label %20, label %26

20:                                               ; preds = %16
  %21 = load i32, ptr %15, align 4
  %22 = icmp ne i32 %21, 0
  tail call void @llvm.assume(i1 %22)
  %23 = add i32 %21, -1
  store i32 %23, ptr %15, align 4
  %24 = icmp eq i32 %23, 0
  br i1 %24, label %25, label %26

25:                                               ; preds = %20
  tail call void @_efree(ptr noundef nonnull %15) #16
  br label %26

26:                                               ; preds = %16, %25, %20, %13
  %27 = getelementptr inbounds i8, ptr %0, i64 16
  %28 = load ptr, ptr %27, align 8
  %.not79 = icmp eq ptr %28, null
  br i1 %.not79, label %39, label %29

29:                                               ; preds = %26
  %30 = getelementptr inbounds i8, ptr %28, i64 4
  %31 = load i32, ptr %30, align 4
  %32 = and i32 %31, 64
  %.not80 = icmp eq i32 %32, 0
  br i1 %.not80, label %33, label %39

33:                                               ; preds = %29
  %34 = load i32, ptr %28, align 4
  %35 = icmp ne i32 %34, 0
  tail call void @llvm.assume(i1 %35)
  %36 = add i32 %34, -1
  store i32 %36, ptr %28, align 4
  %37 = icmp eq i32 %36, 0
  br i1 %37, label %38, label %39

38:                                               ; preds = %33
  tail call void @_efree(ptr noundef nonnull %28) #16
  br label %39

39:                                               ; preds = %29, %38, %33, %26
  %40 = getelementptr inbounds i8, ptr %0, i64 24
  %41 = load ptr, ptr %40, align 8
  %.not81 = icmp eq ptr %41, null
  br i1 %.not81, label %52, label %42

42:                                               ; preds = %39
  %43 = getelementptr inbounds i8, ptr %41, i64 4
  %44 = load i32, ptr %43, align 4
  %45 = and i32 %44, 64
  %.not82 = icmp eq i32 %45, 0
  br i1 %.not82, label %46, label %52

46:                                               ; preds = %42
  %47 = load i32, ptr %41, align 4
  %48 = icmp ne i32 %47, 0
  tail call void @llvm.assume(i1 %48)
  %49 = add i32 %47, -1
  store i32 %49, ptr %41, align 4
  %50 = icmp eq i32 %49, 0
  br i1 %50, label %51, label %52

51:                                               ; preds = %46
  tail call void @_efree(ptr noundef nonnull %41) #16
  br label %52

52:                                               ; preds = %42, %51, %46, %39
  %53 = getelementptr inbounds i8, ptr %0, i64 40
  %54 = load ptr, ptr %53, align 8
  %.not83 = icmp eq ptr %54, null
  br i1 %.not83, label %65, label %55

55:                                               ; preds = %52
  %56 = getelementptr inbounds i8, ptr %54, i64 4
  %57 = load i32, ptr %56, align 4
  %58 = and i32 %57, 64
  %.not84 = icmp eq i32 %58, 0
  br i1 %.not84, label %59, label %65

59:                                               ; preds = %55
  %60 = load i32, ptr %54, align 4
  %61 = icmp ne i32 %60, 0
  tail call void @llvm.assume(i1 %61)
  %62 = add i32 %60, -1
  store i32 %62, ptr %54, align 4
  %63 = icmp eq i32 %62, 0
  br i1 %63, label %64, label %65

64:                                               ; preds = %59
  tail call void @_efree(ptr noundef nonnull %54) #16
  br label %65

65:                                               ; preds = %55, %64, %59, %52
  %66 = getelementptr inbounds i8, ptr %0, i64 48
  %67 = load ptr, ptr %66, align 8
  %.not85 = icmp eq ptr %67, null
  br i1 %.not85, label %78, label %68

68:                                               ; preds = %65
  %69 = getelementptr inbounds i8, ptr %67, i64 4
  %70 = load i32, ptr %69, align 4
  %71 = and i32 %70, 64
  %.not86 = icmp eq i32 %71, 0
  br i1 %.not86, label %72, label %78

72:                                               ; preds = %68
  %73 = load i32, ptr %67, align 4
  %74 = icmp ne i32 %73, 0
  tail call void @llvm.assume(i1 %74)
  %75 = add i32 %73, -1
  store i32 %75, ptr %67, align 4
  %76 = icmp eq i32 %75, 0
  br i1 %76, label %77, label %78

77:                                               ; preds = %72
  tail call void @_efree(ptr noundef nonnull %67) #16
  br label %78

78:                                               ; preds = %68, %77, %72, %65
  %79 = getelementptr inbounds i8, ptr %0, i64 56
  %80 = load ptr, ptr %79, align 8
  %.not87 = icmp eq ptr %80, null
  br i1 %.not87, label %91, label %81

81:                                               ; preds = %78
  %82 = getelementptr inbounds i8, ptr %80, i64 4
  %83 = load i32, ptr %82, align 4
  %84 = and i32 %83, 64
  %.not88 = icmp eq i32 %84, 0
  br i1 %.not88, label %85, label %91

85:                                               ; preds = %81
  %86 = load i32, ptr %80, align 4
  %87 = icmp ne i32 %86, 0
  tail call void @llvm.assume(i1 %87)
  %88 = add i32 %86, -1
  store i32 %88, ptr %80, align 4
  %89 = icmp eq i32 %88, 0
  br i1 %89, label %90, label %91

90:                                               ; preds = %85
  tail call void @_efree(ptr noundef nonnull %80) #16
  br label %91

91:                                               ; preds = %81, %90, %85, %78
  tail call void @_efree(ptr noundef nonnull %0) #16
  ret void
}